CCS PCM C Compiler, Version 5.070, 56587               18-jan-21 10:05

               Filename:   D:\IFTM\6º SEM\MICRO\MICRO 2020-2\ProjetosC\prova4c\main.lst

               ROM used:   2455 words (30%)
                           Largest free fragment is 2048
               RAM used:   40 (11%) at main() level
                           67 (18%) worst case
               Stack used: 4 locations (3 in main + 1 for interrupts)
               Stack size: 8

*
0000:  MOVLW  08
0001:  MOVWF  0A
0002:  GOTO   0E8
0003:  NOP
0004:  MOVWF  7F
0005:  SWAPF  03,W
0006:  CLRF   03
0007:  MOVWF  21
0008:  MOVF   0A,W
0009:  MOVWF  20
000A:  CLRF   0A
000B:  MOVF   04,W
000C:  MOVWF  22
000D:  MOVF   77,W
000E:  MOVWF  23
000F:  MOVF   78,W
0010:  MOVWF  24
0011:  MOVF   79,W
0012:  MOVWF  25
0013:  MOVF   7A,W
0014:  MOVWF  26
0015:  BSF    03.6
0016:  MOVF   0D,W
0017:  BCF    03.6
0018:  MOVWF  27
0019:  BSF    03.6
001A:  MOVF   0F,W
001B:  BCF    03.6
001C:  MOVWF  28
001D:  BSF    03.6
001E:  MOVF   0C,W
001F:  BCF    03.6
0020:  MOVWF  29
0021:  BSF    03.6
0022:  MOVF   0E,W
0023:  BCF    03.6
0024:  MOVWF  2A
0025:  BCF    03.7
0026:  BCF    03.5
0027:  BTFSS  0B.5
0028:  GOTO   02B
0029:  BTFSC  0B.2
002A:  GOTO   04C
002B:  MOVF   22,W
002C:  MOVWF  04
002D:  MOVF   23,W
002E:  MOVWF  77
002F:  MOVF   24,W
0030:  MOVWF  78
0031:  MOVF   25,W
0032:  MOVWF  79
0033:  MOVF   26,W
0034:  MOVWF  7A
0035:  MOVF   27,W
0036:  BSF    03.6
0037:  MOVWF  0D
0038:  BCF    03.6
0039:  MOVF   28,W
003A:  BSF    03.6
003B:  MOVWF  0F
003C:  BCF    03.6
003D:  MOVF   29,W
003E:  BSF    03.6
003F:  MOVWF  0C
0040:  BCF    03.6
0041:  MOVF   2A,W
0042:  BSF    03.6
0043:  MOVWF  0E
0044:  BCF    03.6
0045:  MOVF   20,W
0046:  MOVWF  0A
0047:  SWAPF  21,W
0048:  MOVWF  03
0049:  SWAPF  7F,F
004A:  SWAPF  7F,W
004B:  RETFIE
004C:  BCF    0A.3
004D:  BCF    0A.4
004E:  GOTO   04F
.................... //joao pedro vieira campos || 46865954874-1 
....................  
.................... #include <main.h> 
.................... #include <16F877A.h> 
.................... //////////// Standard Header file for the PIC16F877A device //////////////// 
.................... /////////////////////////////////////////////////////////////////////////// 
.................... ////        (C) Copyright 1996, 2014 Custom Computer Services          //// 
.................... //// This source code may only be used by licensed users of the CCS C  //// 
.................... //// compiler.  This source code may only be distributed to other      //// 
.................... //// licensed users of the CCS C compiler.  No other use, reproduction //// 
.................... //// or distribution is permitted without written permission.          //// 
.................... //// Derivative programs created using this software in object code    //// 
.................... //// form are not restricted in any way.                               //// 
.................... /////////////////////////////////////////////////////////////////////////// 
.................... #device PIC16F877A 
*
005D:  DATA 56,1D
005E:  DATA 4F,23
005F:  DATA 00,00
0060:  DATA 52,1D
0061:  DATA 4F,27
0062:  DATA 00,01
0063:  DATA 52,1D
0064:  DATA 4F,23
0065:  DATA 00,01
0066:  DATA 56,1D
0067:  DATA 4F,27
0068:  DATA 00,01
0069:  DATA 56,1D
006A:  DATA 4F,23
006B:  DATA 00,01
006C:  DATA 52,1D
006D:  DATA 4F,23
006E:  DATA 00,01
006F:  DATA 56,1D
0070:  DATA 4F,27
0071:  DATA 00,01
0072:  DATA 56,1D
0073:  DATA 4F,23
0074:  DATA 00,01
0075:  DATA 52,1D
0076:  DATA 4F,23
0077:  DATA 00,00
*
012F:  MOVF   50,W
0130:  BTFSC  03.2
0131:  GOTO   19F
0132:  MOVWF  58
0133:  MOVF   54,W
0134:  BTFSC  03.2
0135:  GOTO   19F
0136:  ADDWF  58,F
0137:  BTFSC  03.0
0138:  GOTO   140
0139:  MOVLW  7F
013A:  SUBWF  58,F
013B:  BTFSS  03.0
013C:  GOTO   19F
013D:  BTFSC  03.2
013E:  GOTO   19F
013F:  GOTO   144
0140:  MOVLW  81
0141:  ADDWF  58,F
0142:  BTFSC  03.0
0143:  GOTO   19F
0144:  MOVF   58,W
0145:  MOVWF  77
0146:  CLRF   78
0147:  CLRF   79
0148:  CLRF   7A
0149:  MOVF   51,W
014A:  MOVWF  5C
014B:  BSF    5C.7
014C:  MOVF   52,W
014D:  MOVWF  5B
014E:  MOVF   53,W
014F:  MOVWF  5A
0150:  MOVLW  18
0151:  MOVWF  58
0152:  CLRF   59
0153:  BTFSS  5A.0
0154:  GOTO   16D
0155:  MOVF   57,W
0156:  ADDWF  7A,F
0157:  BTFSS  03.0
0158:  GOTO   15F
0159:  INCF   79,F
015A:  BTFSS  03.2
015B:  GOTO   15F
015C:  INCF   78,F
015D:  BTFSC  03.2
015E:  BSF    59.7
015F:  MOVF   56,W
0160:  ADDWF  79,F
0161:  BTFSS  03.0
0162:  GOTO   166
0163:  INCF   78,F
0164:  BTFSC  03.2
0165:  BSF    59.7
0166:  MOVF   55,W
0167:  MOVWF  52
0168:  BSF    52.7
0169:  MOVF   52,W
016A:  ADDWF  78,F
016B:  BTFSC  03.0
016C:  BSF    59.7
016D:  RLF    59,F
016E:  RRF    78,F
016F:  RRF    79,F
0170:  RRF    7A,F
0171:  RRF    5C,F
0172:  RRF    5B,F
0173:  RRF    5A,F
0174:  BCF    03.0
0175:  DECFSZ 58,F
0176:  GOTO   152
0177:  MOVLW  01
0178:  ADDWF  77,F
0179:  BTFSC  03.0
017A:  GOTO   19F
017B:  BTFSC  78.7
017C:  GOTO   184
017D:  RLF    5C,F
017E:  RLF    7A,F
017F:  RLF    79,F
0180:  RLF    78,F
0181:  DECF   77,F
0182:  BTFSC  03.2
0183:  GOTO   19F
0184:  BTFSS  5C.7
0185:  GOTO   195
0186:  INCF   7A,F
0187:  BTFSS  03.2
0188:  GOTO   195
0189:  INCF   79,F
018A:  BTFSS  03.2
018B:  GOTO   195
018C:  INCF   78,F
018D:  BTFSS  03.2
018E:  GOTO   195
018F:  RRF    78,F
0190:  RRF    79,F
0191:  RRF    7A,F
0192:  INCF   77,F
0193:  BTFSC  03.2
0194:  GOTO   19F
0195:  MOVF   51,W
0196:  MOVWF  59
0197:  MOVF   55,W
0198:  XORWF  59,F
0199:  BTFSS  59.7
019A:  GOTO   19D
019B:  BSF    78.7
019C:  GOTO   1A3
019D:  BCF    78.7
019E:  GOTO   1A3
019F:  CLRF   77
01A0:  CLRF   78
01A1:  CLRF   79
01A2:  CLRF   7A
01A3:  RETURN
01A4:  BTFSC  03.1
01A5:  GOTO   1A9
01A6:  MOVLW  58
01A7:  MOVWF  04
01A8:  BCF    03.7
01A9:  CLRF   77
01AA:  CLRF   78
01AB:  CLRF   79
01AC:  CLRF   7A
01AD:  CLRF   58
01AE:  CLRF   59
01AF:  CLRF   5A
01B0:  CLRF   5B
01B1:  MOVF   57,W
01B2:  IORWF  56,W
01B3:  IORWF  55,W
01B4:  IORWF  54,W
01B5:  BTFSC  03.2
01B6:  GOTO   1E7
01B7:  MOVLW  20
01B8:  MOVWF  5C
01B9:  BCF    03.0
01BA:  RLF    50,F
01BB:  RLF    51,F
01BC:  RLF    52,F
01BD:  RLF    53,F
01BE:  RLF    58,F
01BF:  RLF    59,F
01C0:  RLF    5A,F
01C1:  RLF    5B,F
01C2:  MOVF   57,W
01C3:  SUBWF  5B,W
01C4:  BTFSS  03.2
01C5:  GOTO   1D0
01C6:  MOVF   56,W
01C7:  SUBWF  5A,W
01C8:  BTFSS  03.2
01C9:  GOTO   1D0
01CA:  MOVF   55,W
01CB:  SUBWF  59,W
01CC:  BTFSS  03.2
01CD:  GOTO   1D0
01CE:  MOVF   54,W
01CF:  SUBWF  58,W
01D0:  BTFSS  03.0
01D1:  GOTO   1E1
01D2:  MOVF   54,W
01D3:  SUBWF  58,F
01D4:  MOVF   55,W
01D5:  BTFSS  03.0
01D6:  INCFSZ 55,W
01D7:  SUBWF  59,F
01D8:  MOVF   56,W
01D9:  BTFSS  03.0
01DA:  INCFSZ 56,W
01DB:  SUBWF  5A,F
01DC:  MOVF   57,W
01DD:  BTFSS  03.0
01DE:  INCFSZ 57,W
01DF:  SUBWF  5B,F
01E0:  BSF    03.0
01E1:  RLF    77,F
01E2:  RLF    78,F
01E3:  RLF    79,F
01E4:  RLF    7A,F
01E5:  DECFSZ 5C,F
01E6:  GOTO   1B9
01E7:  MOVF   58,W
01E8:  MOVWF  00
01E9:  INCF   04,F
01EA:  MOVF   59,W
01EB:  MOVWF  00
01EC:  INCF   04,F
01ED:  MOVF   5A,W
01EE:  MOVWF  00
01EF:  INCF   04,F
01F0:  MOVF   5B,W
01F1:  MOVWF  00
01F2:  RETURN
01F3:  MOVF   04,W
01F4:  MOVWF  48
01F5:  MOVF   47,W
01F6:  MOVWF  4A
01F7:  BTFSC  03.2
01F8:  GOTO   212
01F9:  MOVF   46,W
01FA:  MOVWF  53
01FB:  MOVF   45,W
01FC:  MOVWF  52
01FD:  MOVF   44,W
01FE:  MOVWF  51
01FF:  MOVF   43,W
0200:  MOVWF  50
0201:  CLRF   57
0202:  CLRF   56
0203:  MOVLW  20
0204:  MOVWF  55
0205:  MOVLW  82
0206:  MOVWF  54
0207:  CALL   12F
0208:  MOVF   7A,W
0209:  MOVWF  46
020A:  MOVF   79,W
020B:  MOVWF  45
020C:  MOVF   78,W
020D:  MOVWF  44
020E:  MOVF   77,W
020F:  MOVWF  43
0210:  DECFSZ 4A,F
0211:  GOTO   1F9
0212:  MOVF   46,W
0213:  MOVWF  53
0214:  MOVF   45,W
0215:  MOVWF  52
0216:  MOVF   44,W
0217:  MOVWF  51
0218:  MOVF   43,W
0219:  MOVWF  50
021A:  MOVF   50,W
021B:  SUBLW  B6
021C:  MOVWF  50
021D:  CLRF   7A
021E:  MOVF   51,W
021F:  MOVWF  54
0220:  BSF    51.7
0221:  BCF    03.0
0222:  RRF    51,F
0223:  RRF    52,F
0224:  RRF    53,F
0225:  RRF    7A,F
0226:  RRF    79,F
0227:  RRF    78,F
0228:  RRF    77,F
0229:  DECFSZ 50,F
022A:  GOTO   221
022B:  BTFSS  54.7
022C:  GOTO   238
022D:  COMF   77,F
022E:  COMF   78,F
022F:  COMF   79,F
0230:  COMF   7A,F
0231:  INCF   77,F
0232:  BTFSC  03.2
0233:  INCF   78,F
0234:  BTFSC  03.2
0235:  INCF   79,F
0236:  BTFSC  03.2
0237:  INCF   7A,F
0238:  MOVF   7A,W
0239:  MOVWF  46
023A:  MOVF   79,W
023B:  MOVWF  45
023C:  MOVF   78,W
023D:  MOVWF  44
023E:  MOVF   77,W
023F:  MOVWF  43
0240:  BTFSS  46.7
0241:  GOTO   24F
0242:  DECF   48,F
0243:  BSF    48.5
0244:  COMF   43,F
0245:  COMF   44,F
0246:  COMF   45,F
0247:  COMF   46,F
0248:  INCF   43,F
0249:  BTFSC  03.2
024A:  INCF   44,F
024B:  BTFSC  03.2
024C:  INCF   45,F
024D:  BTFSC  03.2
024E:  INCF   46,F
024F:  MOVLW  3B
0250:  MOVWF  4F
0251:  MOVLW  9A
0252:  MOVWF  4E
0253:  MOVLW  CA
0254:  MOVWF  4D
0255:  CLRF   4C
0256:  MOVLW  0A
0257:  MOVWF  4A
0258:  MOVF   47,W
0259:  BTFSC  03.2
025A:  INCF   48,F
025B:  BSF    03.1
025C:  MOVLW  43
025D:  MOVWF  04
025E:  BCF    03.7
025F:  MOVF   46,W
0260:  MOVWF  53
0261:  MOVF   45,W
0262:  MOVWF  52
0263:  MOVF   44,W
0264:  MOVWF  51
0265:  MOVF   43,W
0266:  MOVWF  50
0267:  MOVF   4F,W
0268:  MOVWF  57
0269:  MOVF   4E,W
026A:  MOVWF  56
026B:  MOVF   4D,W
026C:  MOVWF  55
026D:  MOVF   4C,W
026E:  MOVWF  54
026F:  CALL   1A4
0270:  MOVF   78,W
0271:  MOVF   77,F
0272:  BTFSS  03.2
0273:  GOTO   287
0274:  INCF   47,W
0275:  SUBWF  4A,W
0276:  BTFSC  03.2
0277:  GOTO   287
0278:  MOVF   48,W
0279:  BTFSC  03.2
027A:  GOTO   289
027B:  ANDLW  0F
027C:  SUBWF  4A,W
027D:  BTFSC  03.2
027E:  GOTO   281
027F:  BTFSC  03.0
0280:  GOTO   2B9
0281:  BTFSC  48.7
0282:  GOTO   2B9
0283:  BTFSC  48.6
0284:  GOTO   289
0285:  MOVLW  20
0286:  GOTO   2B5
0287:  MOVLW  20
0288:  ANDWF  48,F
0289:  BTFSS  48.5
028A:  GOTO   297
028B:  BCF    48.5
028C:  MOVF   47,W
028D:  BTFSS  03.2
028E:  DECF   48,F
028F:  MOVF   77,W
0290:  MOVWF  48
0291:  MOVLW  2D
0292:  MOVWF  50
0293:  CALL   10F
0294:  MOVF   48,W
0295:  MOVWF  77
0296:  CLRF   48
0297:  MOVF   47,W
0298:  SUBWF  4A,W
0299:  BTFSS  03.2
029A:  GOTO   2A5
029B:  MOVF   77,W
029C:  MOVWF  48
029D:  MOVLW  2E
029E:  MOVWF  50
029F:  CALL   10F
02A0:  MOVF   48,W
02A1:  MOVWF  77
02A2:  MOVLW  20
02A3:  ANDWF  48,F
02A4:  MOVLW  00
02A5:  MOVLW  30
02A6:  BTFSS  48.5
02A7:  GOTO   2B5
02A8:  BCF    48.5
02A9:  MOVF   47,W
02AA:  BTFSS  03.2
02AB:  DECF   48,F
02AC:  MOVF   77,W
02AD:  MOVWF  48
02AE:  MOVLW  2D
02AF:  MOVWF  50
02B0:  CALL   10F
02B1:  MOVF   48,W
02B2:  MOVWF  77
02B3:  CLRF   48
02B4:  MOVLW  30
02B5:  ADDWF  77,F
02B6:  MOVF   77,W
02B7:  MOVWF  50
02B8:  CALL   10F
02B9:  BCF    03.1
02BA:  MOVF   4F,W
02BB:  MOVWF  53
02BC:  MOVF   4E,W
02BD:  MOVWF  52
02BE:  MOVF   4D,W
02BF:  MOVWF  51
02C0:  MOVF   4C,W
02C1:  MOVWF  50
02C2:  CLRF   57
02C3:  CLRF   56
02C4:  CLRF   55
02C5:  MOVLW  0A
02C6:  MOVWF  54
02C7:  CALL   1A4
02C8:  MOVF   7A,W
02C9:  MOVWF  4F
02CA:  MOVF   79,W
02CB:  MOVWF  4E
02CC:  MOVF   78,W
02CD:  MOVWF  4D
02CE:  MOVF   77,W
02CF:  MOVWF  4C
02D0:  DECFSZ 4A,F
02D1:  GOTO   25B
02D2:  RETURN
02D3:  MOVLW  80
02D4:  BTFSC  03.1
02D5:  XORWF  4C,F
02D6:  CLRF   51
02D7:  CLRF   52
02D8:  MOVF   48,W
02D9:  MOVWF  50
02DA:  MOVF   4C,W
02DB:  XORWF  50,F
02DC:  MOVF   47,W
02DD:  BTFSC  03.2
02DE:  GOTO   3C3
02DF:  MOVWF  4F
02E0:  MOVWF  77
02E1:  MOVF   4B,W
02E2:  BTFSC  03.2
02E3:  GOTO   3CC
02E4:  SUBWF  4F,F
02E5:  BTFSC  03.2
02E6:  GOTO   368
02E7:  BTFSS  03.0
02E8:  GOTO   326
02E9:  MOVF   4C,W
02EA:  MOVWF  55
02EB:  BSF    55.7
02EC:  MOVF   4D,W
02ED:  MOVWF  54
02EE:  MOVF   4E,W
02EF:  MOVWF  53
02F0:  CLRF   52
02F1:  BCF    03.0
02F2:  RRF    55,F
02F3:  RRF    54,F
02F4:  RRF    53,F
02F5:  RRF    52,F
02F6:  DECFSZ 4F,F
02F7:  GOTO   2F0
02F8:  BTFSS  50.7
02F9:  GOTO   2FD
02FA:  BSF    51.0
02FB:  GOTO   3E0
02FC:  BCF    51.0
02FD:  BCF    4F.0
02FE:  BSF    51.4
02FF:  MOVLW  4A
0300:  MOVWF  04
0301:  BCF    03.7
0302:  GOTO   3F5
0303:  BCF    51.4
0304:  BTFSC  50.7
0305:  GOTO   310
0306:  BTFSS  4F.0
0307:  GOTO   31B
0308:  RRF    55,F
0309:  RRF    54,F
030A:  RRF    53,F
030B:  RRF    52,F
030C:  INCF   77,F
030D:  BTFSC  03.2
030E:  GOTO   3DB
030F:  GOTO   31B
0310:  BTFSC  55.7
0311:  GOTO   31E
0312:  BCF    03.0
0313:  RLF    52,F
0314:  RLF    53,F
0315:  RLF    54,F
0316:  RLF    55,F
0317:  DECF   77,F
0318:  BTFSC  03.2
0319:  GOTO   3DB
031A:  GOTO   310
031B:  BSF    51.6
031C:  GOTO   388
031D:  BCF    51.6
031E:  MOVF   48,W
031F:  MOVWF  50
0320:  BTFSS  50.7
0321:  GOTO   324
0322:  BSF    55.7
0323:  GOTO   3D4
0324:  BCF    55.7
0325:  GOTO   3D4
0326:  MOVF   4B,W
0327:  MOVWF  4F
0328:  MOVWF  77
0329:  MOVF   47,W
032A:  SUBWF  4F,F
032B:  MOVF   48,W
032C:  MOVWF  55
032D:  BSF    55.7
032E:  MOVF   49,W
032F:  MOVWF  54
0330:  MOVF   4A,W
0331:  MOVWF  53
0332:  CLRF   52
0333:  BCF    03.0
0334:  RRF    55,F
0335:  RRF    54,F
0336:  RRF    53,F
0337:  RRF    52,F
0338:  DECFSZ 4F,F
0339:  GOTO   332
033A:  BTFSS  50.7
033B:  GOTO   33F
033C:  BSF    51.1
033D:  GOTO   3E0
033E:  BCF    51.1
033F:  BCF    4F.0
0340:  BSF    51.5
0341:  MOVLW  4E
0342:  MOVWF  04
0343:  BCF    03.7
0344:  GOTO   3F5
0345:  BCF    51.5
0346:  BTFSC  50.7
0347:  GOTO   352
0348:  BTFSS  4F.0
0349:  GOTO   35D
034A:  RRF    55,F
034B:  RRF    54,F
034C:  RRF    53,F
034D:  RRF    52,F
034E:  INCF   77,F
034F:  BTFSC  03.2
0350:  GOTO   3DB
0351:  GOTO   35D
0352:  BTFSC  55.7
0353:  GOTO   360
0354:  BCF    03.0
0355:  RLF    52,F
0356:  RLF    53,F
0357:  RLF    54,F
0358:  RLF    55,F
0359:  DECF   77,F
035A:  BTFSC  03.2
035B:  GOTO   3DB
035C:  GOTO   352
035D:  BSF    51.7
035E:  GOTO   388
035F:  BCF    51.7
0360:  MOVF   4C,W
0361:  MOVWF  50
0362:  BTFSS  50.7
0363:  GOTO   366
0364:  BSF    55.7
0365:  GOTO   3D4
0366:  BCF    55.7
0367:  GOTO   3D4
0368:  MOVF   4C,W
0369:  MOVWF  55
036A:  BSF    55.7
036B:  MOVF   4D,W
036C:  MOVWF  54
036D:  MOVF   4E,W
036E:  MOVWF  53
036F:  BTFSS  50.7
0370:  GOTO   375
0371:  BCF    55.7
0372:  BSF    51.2
0373:  GOTO   3E0
0374:  BCF    51.2
0375:  CLRF   52
0376:  BCF    4F.0
0377:  MOVLW  4A
0378:  MOVWF  04
0379:  BCF    03.7
037A:  GOTO   3F5
037B:  BTFSC  50.7
037C:  GOTO   39E
037D:  MOVF   48,W
037E:  MOVWF  50
037F:  BTFSS  4F.0
0380:  GOTO   388
0381:  RRF    55,F
0382:  RRF    54,F
0383:  RRF    53,F
0384:  RRF    52,F
0385:  INCF   77,F
0386:  BTFSC  03.2
0387:  GOTO   3DB
0388:  BTFSS  52.7
0389:  GOTO   399
038A:  INCF   53,F
038B:  BTFSS  03.2
038C:  GOTO   399
038D:  INCF   54,F
038E:  BTFSS  03.2
038F:  GOTO   399
0390:  INCF   55,F
0391:  BTFSS  03.2
0392:  GOTO   399
0393:  RRF    55,F
0394:  RRF    54,F
0395:  RRF    53,F
0396:  INCF   77,F
0397:  BTFSC  03.2
0398:  GOTO   3DB
0399:  BTFSC  51.6
039A:  GOTO   31D
039B:  BTFSC  51.7
039C:  GOTO   35F
039D:  GOTO   3BD
039E:  MOVLW  80
039F:  XORWF  55,F
03A0:  BTFSS  55.7
03A1:  GOTO   3A6
03A2:  GOTO   3E0
03A3:  MOVF   4C,W
03A4:  MOVWF  50
03A5:  GOTO   3B3
03A6:  MOVF   48,W
03A7:  MOVWF  50
03A8:  MOVF   55,F
03A9:  BTFSS  03.2
03AA:  GOTO   3B3
03AB:  MOVF   54,F
03AC:  BTFSS  03.2
03AD:  GOTO   3B3
03AE:  MOVF   53,F
03AF:  BTFSS  03.2
03B0:  GOTO   3B3
03B1:  CLRF   77
03B2:  GOTO   3D4
03B3:  BTFSC  55.7
03B4:  GOTO   3BD
03B5:  BCF    03.0
03B6:  RLF    52,F
03B7:  RLF    53,F
03B8:  RLF    54,F
03B9:  RLF    55,F
03BA:  DECFSZ 77,F
03BB:  GOTO   3B3
03BC:  GOTO   3DB
03BD:  BTFSS  50.7
03BE:  GOTO   3C1
03BF:  BSF    55.7
03C0:  GOTO   3D4
03C1:  BCF    55.7
03C2:  GOTO   3D4
03C3:  MOVF   4B,W
03C4:  MOVWF  77
03C5:  MOVF   4C,W
03C6:  MOVWF  55
03C7:  MOVF   4D,W
03C8:  MOVWF  54
03C9:  MOVF   4E,W
03CA:  MOVWF  53
03CB:  GOTO   3D4
03CC:  MOVF   47,W
03CD:  MOVWF  77
03CE:  MOVF   48,W
03CF:  MOVWF  55
03D0:  MOVF   49,W
03D1:  MOVWF  54
03D2:  MOVF   4A,W
03D3:  MOVWF  53
03D4:  MOVF   55,W
03D5:  MOVWF  78
03D6:  MOVF   54,W
03D7:  MOVWF  79
03D8:  MOVF   53,W
03D9:  MOVWF  7A
03DA:  GOTO   413
03DB:  CLRF   77
03DC:  CLRF   78
03DD:  CLRF   79
03DE:  CLRF   7A
03DF:  GOTO   413
03E0:  CLRF   52
03E1:  COMF   53,F
03E2:  COMF   54,F
03E3:  COMF   55,F
03E4:  COMF   52,F
03E5:  INCF   52,F
03E6:  BTFSS  03.2
03E7:  GOTO   3EE
03E8:  INCF   53,F
03E9:  BTFSS  03.2
03EA:  GOTO   3EE
03EB:  INCF   54,F
03EC:  BTFSC  03.2
03ED:  INCF   55,F
03EE:  BTFSC  51.0
03EF:  GOTO   2FC
03F0:  BTFSC  51.1
03F1:  GOTO   33E
03F2:  BTFSC  51.2
03F3:  GOTO   374
03F4:  GOTO   3A3
03F5:  MOVF   00,W
03F6:  ADDWF  53,F
03F7:  BTFSS  03.0
03F8:  GOTO   3FF
03F9:  INCF   54,F
03FA:  BTFSS  03.2
03FB:  GOTO   3FF
03FC:  INCF   55,F
03FD:  BTFSC  03.2
03FE:  BSF    4F.0
03FF:  DECF   04,F
0400:  MOVF   00,W
0401:  ADDWF  54,F
0402:  BTFSS  03.0
0403:  GOTO   407
0404:  INCF   55,F
0405:  BTFSC  03.2
0406:  BSF    4F.0
0407:  DECF   04,F
0408:  MOVF   00,W
0409:  BTFSS  00.7
040A:  XORLW  80
040B:  ADDWF  55,F
040C:  BTFSC  03.0
040D:  BSF    4F.0
040E:  BTFSC  51.4
040F:  GOTO   303
0410:  BTFSC  51.5
0411:  GOTO   345
0412:  GOTO   37B
0413:  RETURN
0414:  MOVF   44,W
0415:  MOVWF  4B
0416:  MOVF   48,W
0417:  XORWF  4B,F
0418:  BTFSS  4B.7
0419:  GOTO   41F
041A:  BCF    03.2
041B:  BCF    03.0
041C:  BTFSC  44.7
041D:  BSF    03.0
041E:  GOTO   452
041F:  MOVF   44,W
0420:  MOVWF  4B
0421:  MOVF   47,W
0422:  MOVWF  4C
0423:  MOVF   43,W
0424:  SUBWF  4C,F
0425:  BTFSC  03.2
0426:  GOTO   42D
0427:  BTFSS  4B.7
0428:  GOTO   452
0429:  MOVF   03,W
042A:  XORLW  01
042B:  MOVWF  03
042C:  GOTO   452
042D:  MOVF   48,W
042E:  MOVWF  4C
042F:  MOVF   44,W
0430:  SUBWF  4C,F
0431:  BTFSC  03.2
0432:  GOTO   439
0433:  BTFSS  4B.7
0434:  GOTO   452
0435:  MOVF   03,W
0436:  XORLW  01
0437:  MOVWF  03
0438:  GOTO   452
0439:  MOVF   49,W
043A:  MOVWF  4C
043B:  MOVF   45,W
043C:  SUBWF  4C,F
043D:  BTFSC  03.2
043E:  GOTO   445
043F:  BTFSS  4B.7
0440:  GOTO   452
0441:  MOVF   03,W
0442:  XORLW  01
0443:  MOVWF  03
0444:  GOTO   452
0445:  MOVF   4A,W
0446:  MOVWF  4C
0447:  MOVF   46,W
0448:  SUBWF  4C,F
0449:  BTFSC  03.2
044A:  GOTO   451
044B:  BTFSS  4B.7
044C:  GOTO   452
044D:  MOVF   03,W
044E:  XORLW  01
044F:  MOVWF  03
0450:  GOTO   452
0451:  BCF    03.0
0452:  RETURN
0453:  MOVF   0B,W
0454:  MOVWF  43
0455:  BCF    0B.7
0456:  BSF    03.5
0457:  BSF    03.6
0458:  BSF    0C.7
0459:  BSF    0C.0
045A:  NOP
045B:  NOP
045C:  BCF    03.5
045D:  BCF    03.6
045E:  BTFSC  43.7
045F:  BSF    0B.7
0460:  BSF    03.6
0461:  MOVF   0C,W
0462:  ANDLW  7F
0463:  BTFSC  03.2
0464:  GOTO   4A7
0465:  BCF    03.6
0466:  MOVWF  43
0467:  BSF    03.6
0468:  MOVF   0D,W
0469:  BCF    03.6
046A:  MOVWF  44
046B:  BSF    03.6
046C:  MOVF   0F,W
046D:  BCF    03.6
046E:  MOVWF  45
046F:  MOVF   43,W
0470:  MOVWF  50
0471:  CALL   10F
0472:  MOVF   44,W
0473:  BSF    03.6
0474:  MOVWF  0D
0475:  BCF    03.6
0476:  MOVF   45,W
0477:  BSF    03.6
0478:  MOVWF  0F
0479:  BCF    03.6
047A:  MOVF   0B,W
047B:  MOVWF  46
047C:  BCF    0B.7
047D:  BSF    03.5
047E:  BSF    03.6
047F:  BSF    0C.7
0480:  BSF    0C.0
0481:  NOP
0482:  NOP
0483:  BCF    03.5
0484:  BCF    03.6
0485:  BTFSC  46.7
0486:  BSF    0B.7
0487:  BSF    03.6
0488:  RLF    0C,W
0489:  RLF    0E,W
048A:  ANDLW  7F
048B:  BTFSC  03.2
048C:  GOTO   4A7
048D:  BCF    03.6
048E:  MOVWF  43
048F:  BSF    03.6
0490:  MOVF   0D,W
0491:  BCF    03.6
0492:  MOVWF  44
0493:  BSF    03.6
0494:  MOVF   0F,W
0495:  BCF    03.6
0496:  MOVWF  45
0497:  MOVF   43,W
0498:  MOVWF  50
0499:  CALL   10F
049A:  MOVF   44,W
049B:  BSF    03.6
049C:  MOVWF  0D
049D:  BCF    03.6
049E:  MOVF   45,W
049F:  BSF    03.6
04A0:  MOVWF  0F
04A1:  INCF   0D,F
04A2:  BTFSC  03.2
04A3:  INCF   0F,F
04A4:  BCF    03.6
04A5:  GOTO   453
04A6:  BSF    03.6
04A7:  BCF    03.6
04A8:  RETURN
*
060D:  MOVLW  8E
060E:  MOVWF  77
060F:  MOVF   46,W
0610:  MOVWF  78
0611:  MOVF   45,W
0612:  MOVWF  79
0613:  CLRF   7A
0614:  MOVF   78,F
0615:  BTFSS  03.2
0616:  GOTO   621
0617:  MOVF   79,W
0618:  MOVWF  78
0619:  CLRF   79
061A:  MOVLW  08
061B:  SUBWF  77,F
061C:  MOVF   78,F
061D:  BTFSS  03.2
061E:  GOTO   621
061F:  CLRF   77
0620:  GOTO   629
0621:  BCF    03.0
0622:  BTFSC  78.7
0623:  GOTO   628
0624:  RLF    79,F
0625:  RLF    78,F
0626:  DECF   77,F
0627:  GOTO   621
0628:  BCF    78.7
0629:  RETURN
062A:  MOVF   47,W
062B:  BTFSC  03.2
062C:  GOTO   6EF
062D:  MOVWF  53
062E:  MOVF   4B,W
062F:  BTFSC  03.2
0630:  GOTO   6EF
0631:  SUBWF  53,F
0632:  BTFSS  03.0
0633:  GOTO   639
0634:  MOVLW  7F
0635:  ADDWF  53,F
0636:  BTFSC  03.0
0637:  GOTO   6EF
0638:  GOTO   63F
0639:  MOVLW  81
063A:  SUBWF  53,F
063B:  BTFSS  03.0
063C:  GOTO   6EF
063D:  BTFSC  03.2
063E:  GOTO   6EF
063F:  MOVF   53,W
0640:  MOVWF  77
0641:  CLRF   78
0642:  CLRF   79
0643:  CLRF   7A
0644:  CLRF   52
0645:  MOVF   48,W
0646:  MOVWF  51
0647:  BSF    51.7
0648:  MOVF   49,W
0649:  MOVWF  50
064A:  MOVF   4A,W
064B:  MOVWF  4F
064C:  MOVLW  19
064D:  MOVWF  53
064E:  MOVF   4E,W
064F:  SUBWF  4F,F
0650:  BTFSC  03.0
0651:  GOTO   662
0652:  MOVLW  01
0653:  SUBWF  50,F
0654:  BTFSC  03.0
0655:  GOTO   662
0656:  SUBWF  51,F
0657:  BTFSC  03.0
0658:  GOTO   662
0659:  SUBWF  52,F
065A:  BTFSC  03.0
065B:  GOTO   662
065C:  INCF   52,F
065D:  INCF   51,F
065E:  INCF   50,F
065F:  MOVF   4E,W
0660:  ADDWF  4F,F
0661:  GOTO   694
0662:  MOVF   4D,W
0663:  SUBWF  50,F
0664:  BTFSC  03.0
0665:  GOTO   67D
0666:  MOVLW  01
0667:  SUBWF  51,F
0668:  BTFSC  03.0
0669:  GOTO   67D
066A:  SUBWF  52,F
066B:  BTFSC  03.0
066C:  GOTO   67D
066D:  INCF   52,F
066E:  INCF   51,F
066F:  MOVF   4D,W
0670:  ADDWF  50,F
0671:  MOVF   4E,W
0672:  ADDWF  4F,F
0673:  BTFSS  03.0
0674:  GOTO   694
0675:  INCF   50,F
0676:  BTFSS  03.2
0677:  GOTO   694
0678:  INCF   51,F
0679:  BTFSS  03.2
067A:  GOTO   694
067B:  INCF   52,F
067C:  GOTO   694
067D:  MOVF   4C,W
067E:  IORLW  80
067F:  SUBWF  51,F
0680:  BTFSC  03.0
0681:  GOTO   693
0682:  MOVLW  01
0683:  SUBWF  52,F
0684:  BTFSC  03.0
0685:  GOTO   693
0686:  INCF   52,F
0687:  MOVF   4C,W
0688:  IORLW  80
0689:  ADDWF  51,F
068A:  MOVF   4D,W
068B:  ADDWF  50,F
068C:  BTFSS  03.0
068D:  GOTO   671
068E:  INCF   51,F
068F:  BTFSS  03.2
0690:  GOTO   671
0691:  INCF   52,F
0692:  GOTO   671
0693:  BSF    7A.0
0694:  DECFSZ 53,F
0695:  GOTO   697
0696:  GOTO   6A2
0697:  BCF    03.0
0698:  RLF    4F,F
0699:  RLF    50,F
069A:  RLF    51,F
069B:  RLF    52,F
069C:  BCF    03.0
069D:  RLF    7A,F
069E:  RLF    79,F
069F:  RLF    78,F
06A0:  RLF    54,F
06A1:  GOTO   64E
06A2:  BTFSS  54.0
06A3:  GOTO   6AA
06A4:  BCF    03.0
06A5:  RRF    78,F
06A6:  RRF    79,F
06A7:  RRF    7A,F
06A8:  RRF    54,F
06A9:  GOTO   6AD
06AA:  DECF   77,F
06AB:  BTFSC  03.2
06AC:  GOTO   6EF
06AD:  BTFSC  54.7
06AE:  GOTO   6D6
06AF:  BCF    03.0
06B0:  RLF    4F,F
06B1:  RLF    50,F
06B2:  RLF    51,F
06B3:  RLF    52,F
06B4:  MOVF   4E,W
06B5:  SUBWF  4F,F
06B6:  BTFSC  03.0
06B7:  GOTO   6C2
06B8:  MOVLW  01
06B9:  SUBWF  50,F
06BA:  BTFSC  03.0
06BB:  GOTO   6C2
06BC:  SUBWF  51,F
06BD:  BTFSC  03.0
06BE:  GOTO   6C2
06BF:  SUBWF  52,F
06C0:  BTFSS  03.0
06C1:  GOTO   6E5
06C2:  MOVF   4D,W
06C3:  SUBWF  50,F
06C4:  BTFSC  03.0
06C5:  GOTO   6CD
06C6:  MOVLW  01
06C7:  SUBWF  51,F
06C8:  BTFSC  03.0
06C9:  GOTO   6CD
06CA:  SUBWF  52,F
06CB:  BTFSS  03.0
06CC:  GOTO   6E5
06CD:  MOVF   4C,W
06CE:  IORLW  80
06CF:  SUBWF  51,F
06D0:  BTFSC  03.0
06D1:  GOTO   6D6
06D2:  MOVLW  01
06D3:  SUBWF  52,F
06D4:  BTFSS  03.0
06D5:  GOTO   6E5
06D6:  INCF   7A,F
06D7:  BTFSS  03.2
06D8:  GOTO   6E5
06D9:  INCF   79,F
06DA:  BTFSS  03.2
06DB:  GOTO   6E5
06DC:  INCF   78,F
06DD:  BTFSS  03.2
06DE:  GOTO   6E5
06DF:  INCF   77,F
06E0:  BTFSC  03.2
06E1:  GOTO   6EF
06E2:  RRF    78,F
06E3:  RRF    79,F
06E4:  RRF    7A,F
06E5:  MOVF   48,W
06E6:  MOVWF  53
06E7:  MOVF   4C,W
06E8:  XORWF  53,F
06E9:  BTFSS  53.7
06EA:  GOTO   6ED
06EB:  BSF    78.7
06EC:  GOTO   6F3
06ED:  BCF    78.7
06EE:  GOTO   6F3
06EF:  CLRF   77
06F0:  CLRF   78
06F1:  CLRF   79
06F2:  CLRF   7A
06F3:  RETURN
*
0721:  MOVLW  10
0722:  MOVWF  47
0723:  CLRF   77
0724:  CLRF   7A
0725:  RRF    44,F
0726:  RRF    43,F
0727:  BTFSS  03.0
0728:  GOTO   72F
0729:  MOVF   45,W
072A:  ADDWF  77,F
072B:  BTFSC  03.0
072C:  INCF   7A,F
072D:  MOVF   46,W
072E:  ADDWF  7A,F
072F:  RRF    7A,F
0730:  RRF    77,F
0731:  RRF    79,F
0732:  RRF    78,F
0733:  DECFSZ 47,F
0734:  GOTO   725
....................  
.................... #list 
....................  
.................... #device ADC=10 
....................  
.................... #FUSES PUT                   	//Power Up Timer 
.................... #FUSES NOLVP                 	//No low voltage prgming, B3(PIC16) or B5(PIC18) used for I/O 
....................  
.................... #use delay(crystal=8MHz) 
*
00CC:  MOVLW  43
00CD:  MOVWF  04
00CE:  BCF    03.7
00CF:  MOVF   00,W
00D0:  BTFSC  03.2
00D1:  GOTO   0DF
00D2:  MOVLW  02
00D3:  MOVWF  78
00D4:  CLRF   77
00D5:  DECFSZ 77,F
00D6:  GOTO   0D5
00D7:  DECFSZ 78,F
00D8:  GOTO   0D4
00D9:  MOVLW  97
00DA:  MOVWF  77
00DB:  DECFSZ 77,F
00DC:  GOTO   0DB
00DD:  DECFSZ 00,F
00DE:  GOTO   0D2
00DF:  RETURN
.................... #use FIXED_IO( A_outputs=PIN_A5 ) 
.................... #use FIXED_IO( C_outputs=PIN_C2,PIN_C1 ) 
.................... #define BUZZER	PIN_A5 
.................... #define S1	PIN_B0 
.................... #define S2	PIN_B1 
.................... #define S3	PIN_B2 
.................... #define S4	PIN_B3 
.................... #define FAN	PIN_C1 
.................... #define HEATER	PIN_C2 
....................  
....................  
....................  
.................... #include <lcd_8bits.c> 
.................... /*========================================= 
.................... 8-BIT LCD DRIVER FOR PIC16F877A CCSC 
.................... ==========================================*/ 
.................... /////////////////////////////////////////////////////////////////// 
.................... // CCS C Compiler 
.................... // LCD 16x2 
.................... // 
.................... // by Nisar Ahmed 
.................... // 2009/03/27 
.................... ////////////////////////////////////////////////////////////////// 
.................... //#include <16F877.h>                           // PIC16F877 header file 
.................... //#use delay(clock=4000000)                       // for 4Mhz crystal 
.................... //#fuses XT, NOWDT, NOPROTECT, NOLVP              // for debug mode 
....................  
.................... #define PORT_A                  0               // define for function output() 
.................... #define PORT_B                  1 
.................... #define PORT_C                  2 
.................... #define PORT_D                  3 
.................... #define PORT_E                  4 
....................  
.................... #define NCHAR_PER_LINE          16              // max char numbers per line 
.................... #define LCD_RS                  PIN_E0 
.................... #define LCD_RW                  PIN_E2 
.................... #define LCD_E                   PIN_E1 
.................... #define LCD_DAT                 PORT_D 
.................... //===========================================================================// 
.................... //--- output() -----------------///////////////////////////////////////////////  
.................... //lcd data bus output 
.................... void output(int8 port, int8 dat) 
.................... { 
....................         switch(port) 
*
0078:  MOVF   51,W
0079:  XORLW  00
007A:  BTFSC  03.2
007B:  GOTO   089
007C:  XORLW  01
007D:  BTFSC  03.2
007E:  GOTO   090
007F:  XORLW  03
0080:  BTFSC  03.2
0081:  GOTO   096
0082:  XORLW  01
0083:  BTFSC  03.2
0084:  GOTO   09D
0085:  XORLW  07
0086:  BTFSC  03.2
0087:  GOTO   0A3
0088:  GOTO   0AB
....................                 { 
....................                 case PORT_A: output_a(dat);      break; 
0089:  MOVLW  DF
008A:  BSF    03.5
008B:  MOVWF  05
008C:  BCF    03.5
008D:  MOVF   52,W
008E:  MOVWF  05
008F:  GOTO   0AB
....................                 case PORT_B: output_b(dat);      break; 
0090:  BSF    03.5
0091:  CLRF   06
0092:  BCF    03.5
0093:  MOVF   52,W
0094:  MOVWF  06
0095:  GOTO   0AB
....................                 case PORT_C: output_c(dat);      break; 
0096:  MOVLW  F9
0097:  BSF    03.5
0098:  MOVWF  07
0099:  BCF    03.5
009A:  MOVF   52,W
009B:  MOVWF  07
009C:  GOTO   0AB
....................                 case PORT_D: output_d(dat);      break; 
009D:  BSF    03.5
009E:  CLRF   08
009F:  BCF    03.5
00A0:  MOVF   52,W
00A1:  MOVWF  08
00A2:  GOTO   0AB
....................                 case PORT_E: output_e(dat);      break; 
00A3:  BSF    03.5
00A4:  BCF    09.0
00A5:  BCF    09.1
00A6:  BCF    09.2
00A7:  BCF    03.5
00A8:  MOVF   52,W
00A9:  MOVWF  09
00AA:  GOTO   0AB
....................                 default :       //??? port maybe error! 
....................                         break; 
....................                 } 
00AB:  RETURN
.................... }//end output() 
.................... //===========================================================================// 
.................... //--- lcd_write_cmd() -----------//////////////////////////////////////////////  
.................... void lcd_write_cmd(int8 cmd) 
.................... { 
....................    delay_us(40); 
00AC:  MOVLW  1A
00AD:  MOVWF  77
00AE:  DECFSZ 77,F
00AF:  GOTO   0AE
00B0:  NOP
....................    output_low(LCD_RS); 
00B1:  BSF    03.5
00B2:  BCF    09.0
00B3:  BCF    03.5
00B4:  BCF    09.0
....................    output_low(LCD_RW); 
00B5:  BSF    03.5
00B6:  BCF    09.2
00B7:  BCF    03.5
00B8:  BCF    09.2
....................    output(LCD_DAT, cmd); 
00B9:  MOVLW  03
00BA:  MOVWF  51
00BB:  MOVF   47,W
00BC:  MOVWF  52
00BD:  CALL   078
....................     
....................    output_high(LCD_E); 
00BE:  BSF    03.5
00BF:  BCF    09.1
00C0:  BCF    03.5
00C1:  BSF    09.1
....................    delay_us(40); 
00C2:  MOVLW  1A
00C3:  MOVWF  77
00C4:  DECFSZ 77,F
00C5:  GOTO   0C4
00C6:  NOP
....................    output_low(LCD_E); 
00C7:  BSF    03.5
00C8:  BCF    09.1
00C9:  BCF    03.5
00CA:  BCF    09.1
00CB:  RETURN
.................... }//end lcd_write_cmd() 
.................... //===========================================================================// 
.................... //--- lcd_write_dat() ------------/////////////////////////////////////////////  
.................... void lcd_write_dat(int8 dat) 
.................... { 
....................    delay_us(40); 
*
010F:  MOVLW  1A
0110:  MOVWF  77
0111:  DECFSZ 77,F
0112:  GOTO   111
0113:  NOP
....................    output_high(LCD_RS); 
0114:  BSF    03.5
0115:  BCF    09.0
0116:  BCF    03.5
0117:  BSF    09.0
....................    output_low(LCD_RW); 
0118:  BSF    03.5
0119:  BCF    09.2
011A:  BCF    03.5
011B:  BCF    09.2
....................    output(LCD_DAT, dat); 
011C:  MOVLW  03
011D:  MOVWF  51
011E:  MOVF   50,W
011F:  MOVWF  52
0120:  CALL   078
....................     
....................    output_high(LCD_E); 
0121:  BSF    03.5
0122:  BCF    09.1
0123:  BCF    03.5
0124:  BSF    09.1
....................    delay_us(40); 
0125:  MOVLW  1A
0126:  MOVWF  77
0127:  DECFSZ 77,F
0128:  GOTO   127
0129:  NOP
....................    output_low(LCD_E); 
012A:  BSF    03.5
012B:  BCF    09.1
012C:  BCF    03.5
012D:  BCF    09.1
012E:  RETURN
.................... }//end lcd_write_dat() 
.................... //===========================================================================// 
.................... //--- lcd_init() ------------//////////////////////////////////////////////////  
.................... void lcd_init(void) 
.................... { 
....................    output_low(LCD_E);              // Let LCD E line low 
*
00E0:  BSF    03.5
00E1:  BCF    09.1
00E2:  BCF    03.5
00E3:  BCF    09.1
....................     
....................    lcd_write_cmd(0x38);            // LCD 16x2, 5x7, 8bits data 
00E4:  MOVLW  38
00E5:  MOVWF  47
00E6:  CALL   0AC
....................    delay_ms(15); 
00E7:  MOVLW  0F
00E8:  MOVWF  43
00E9:  CALL   0CC
....................    lcd_write_cmd(0x01);            // Clear LCD display 
00EA:  MOVLW  01
00EB:  MOVWF  47
00EC:  CALL   0AC
....................    delay_ms(10); 
00ED:  MOVLW  0A
00EE:  MOVWF  43
00EF:  CALL   0CC
....................    lcd_write_cmd(0x0C);            // Open display & current 
00F0:  MOVLW  0C
00F1:  MOVWF  47
00F2:  CALL   0AC
....................    delay_ms(10); 
00F3:  MOVLW  0A
00F4:  MOVWF  43
00F5:  CALL   0CC
....................    lcd_write_cmd(0x06);            // Window fixed 
00F6:  MOVLW  06
00F7:  MOVWF  47
00F8:  CALL   0AC
....................    delay_ms(10); 
00F9:  MOVLW  0A
00FA:  MOVWF  43
00FB:  CALL   0CC
00FC:  BSF    0A.3
00FD:  BCF    0A.4
00FE:  GOTO   120 (RETURN)
.................... }//end lcd_init() 
.................... //===========================================================================// 
.................... //--- lcd_display_char() ------------////////////////////////////////////////// 
.................... void lcd_display_char(int8 line, int8 pos, int8 ch) 
.................... { 
....................         int8 tmp; 
....................  
....................         line = (line==0) ? 0 : 1; 
....................         pos  = (pos >NCHAR_PER_LINE) ? NCHAR_PER_LINE : pos; 
....................  
....................         tmp = 0x80 + 0x40*line + pos; 
....................         lcd_write_cmd(tmp); 
....................         lcd_write_dat(ch); 
.................... }//end lcd_display_char() 
.................... //===========================================================================// 
.................... //--- lcd_display_str() ------------///////////////////////////////////////////  
.................... void lcd_display_str(int8 line, char str[]) 
.................... { 
....................      int8 i; 
....................  
....................         for(i=0; i<NCHAR_PER_LINE; i++) 
....................             { 
....................                 lcd_display_char(line, i, ' '); 
....................                 } 
....................         for(i=0; i<NCHAR_PER_LINE; i++) 
....................                 { 
....................                 if(str[i] == '\0') break; 
....................                 lcd_display_char(line, i, str[i]); 
....................                 } 
.................... }//end lcd_display_str() 
.................... //===========================================================================// 
.................... //--- lcd_gotoxy(coluna linha) -----///////////////////////////////////////////  
.................... void lcd_gotoxy(unsigned int8 x, unsigned int8 y) 
.................... { 
....................    unsigned int8 address; 
....................     
....................    if(y != 1) 
00FF:  DECFSZ 44,W
0100:  GOTO   102
0101:  GOTO   105
....................       address = 0x40; 
0102:  MOVLW  40
0103:  MOVWF  45
0104:  GOTO   106
....................    else 
....................       address = 0x00; 
0105:  CLRF   45
....................       
....................    address += (x-1);    
0106:  MOVLW  01
0107:  SUBWF  43,W
0108:  ADDWF  45,F
....................    lcd_write_cmd(0x80|address); 
0109:  MOVF   45,W
010A:  IORLW  80
010B:  MOVWF  46
010C:  MOVWF  47
010D:  CALL   0AC
010E:  RETURN
.................... } 
.................... //===========================================================================// 
....................  
....................  
.................... int1 fim500ms, processo, qual_display, acao, acao1, acao2, acao3; 
.................... int8 aux500ms, filtro, filtro1, filtro2, filtro3; 
.................... unsigned int16 temp, pot; 
.................... float his, potC, tempC; 
....................  
.................... #define AUX_500MS 250 
.................... #define V_FILTRO 100 
....................  
.................... void le_botaoS1(); 
.................... void le_botaoS2(); 
.................... void le_botaoS3(); 
.................... void le_botaoS4(); 
.................... void le_entradas(); 
.................... void controla_processo(); 
....................  
.................... #INT_TIMER0 
.................... void  TIMER0_isr(void){ 
....................    set_timer0(get_timer0() + 6); 
*
004F:  MOVF   01,W
0050:  ADDLW  06
0051:  MOVWF  5D
0052:  MOVF   5D,W
0053:  MOVWF  01
....................    aux500ms--; 
0054:  DECFSZ 2C,F
....................    if(aux500ms==0){ 
0055:  GOTO   059
....................       fim500ms = 1; 
0056:  BSF    2B.0
....................       aux500ms = AUX_500MS; 
0057:  MOVLW  FA
0058:  MOVWF  2C
....................    } 
0059:  BCF    0B.2
005A:  BCF    0A.3
005B:  BCF    0A.4
005C:  GOTO   02B
.................... } 
....................  
.................... void main() 
*
08E8:  MOVF   03,W
08E9:  ANDLW  1F
08EA:  MOVWF  03
08EB:  CLRF   42
08EC:  CLRF   41
08ED:  BSF    03.5
08EE:  BSF    1F.0
08EF:  BSF    1F.1
08F0:  BSF    1F.2
08F1:  BCF    1F.3
08F2:  MOVLW  07
08F3:  MOVWF  1C
08F4:  BCF    03.7
.................... { 
....................    setup_adc_ports(AN0_AN1_AN3); 
08F5:  BCF    1F.0
08F6:  BCF    1F.1
08F7:  BSF    1F.2
08F8:  BCF    1F.3
....................    setup_adc(ADC_CLOCK_INTERNAL); 
08F9:  BCF    1F.6
08FA:  BCF    03.5
08FB:  BSF    1F.6
08FC:  BSF    1F.7
08FD:  BSF    03.5
08FE:  BSF    1F.7
08FF:  BCF    03.5
0900:  BSF    1F.0
....................    setup_timer_0(RTCC_INTERNAL|RTCC_DIV_16|RTCC_8_BIT);      //2,0 ms overflow 
0901:  BSF    03.5
0902:  MOVF   01,W
0903:  ANDLW  C0
0904:  IORLW  03
0905:  MOVWF  01
....................    enable_interrupts(INT_TIMER0); 
0906:  BCF    03.5
0907:  BSF    0B.5
....................    enable_interrupts(GLOBAL); 
0908:  MOVLW  C0
0909:  IORWF  0B,F
....................    his = 0.1; 
090A:  MOVLW  CD
090B:  MOVWF  38
090C:  MOVLW  CC
090D:  MOVWF  37
090E:  MOVLW  4C
090F:  MOVWF  36
0910:  MOVLW  7B
0911:  MOVWF  35
....................    aux500ms = AUX_500MS; 
0912:  MOVLW  FA
0913:  MOVWF  2C
....................    filtro = V_FILTRO; 
0914:  MOVLW  64
0915:  MOVWF  2D
....................    filtro1 = V_FILTRO; 
0916:  MOVWF  2E
....................    filtro2 = V_FILTRO; 
0917:  MOVWF  2F
....................    acao = 0; 
0918:  BCF    2B.3
....................    acao1 = 0; 
0919:  BCF    2B.4
....................    acao2 = 0; 
091A:  BCF    2B.5
....................    fim500ms = 0; 
091B:  BCF    2B.0
....................    processo = 0; 
091C:  BCF    2B.1
....................    qual_display = 0; 
091D:  BCF    2B.2
....................    lcd_init(); 
091E:  BCF    0A.3
091F:  GOTO   0E0
0920:  BSF    0A.3
....................    lcd_gotoxy(1,1); 
0921:  MOVLW  01
0922:  MOVWF  43
0923:  MOVWF  44
0924:  BCF    0A.3
0925:  CALL   0FF
0926:  BSF    0A.3
....................    printf(lcd_write_dat,"SP:"); 
0927:  MOVLW  53
0928:  MOVWF  50
0929:  BCF    0A.3
092A:  CALL   10F
092B:  BSF    0A.3
092C:  MOVLW  50
092D:  MOVWF  50
092E:  BCF    0A.3
092F:  CALL   10F
0930:  BSF    0A.3
0931:  MOVLW  3A
0932:  MOVWF  50
0933:  BCF    0A.3
0934:  CALL   10F
0935:  BSF    0A.3
....................    lcd_gotoxy(9,1); 
0936:  MOVLW  09
0937:  MOVWF  43
0938:  MOVLW  01
0939:  MOVWF  44
093A:  BCF    0A.3
093B:  CALL   0FF
093C:  BSF    0A.3
....................    printf(lcd_write_dat,"PV:"); 
093D:  MOVLW  50
093E:  MOVWF  50
093F:  BCF    0A.3
0940:  CALL   10F
0941:  BSF    0A.3
0942:  MOVLW  56
0943:  MOVWF  50
0944:  BCF    0A.3
0945:  CALL   10F
0946:  BSF    0A.3
0947:  MOVLW  3A
0948:  MOVWF  50
0949:  BCF    0A.3
094A:  CALL   10F
094B:  BSF    0A.3
....................    lcd_gotoxy(1,2); 
094C:  MOVLW  01
094D:  MOVWF  43
094E:  MOVLW  02
094F:  MOVWF  44
0950:  BCF    0A.3
0951:  CALL   0FF
0952:  BSF    0A.3
....................    printf(lcd_write_dat,"P:"); 
0953:  MOVLW  50
0954:  MOVWF  50
0955:  BCF    0A.3
0956:  CALL   10F
0957:  BSF    0A.3
0958:  MOVLW  3A
0959:  MOVWF  50
095A:  BCF    0A.3
095B:  CALL   10F
095C:  BSF    0A.3
....................    lcd_gotoxy(6,2); 
095D:  MOVLW  06
095E:  MOVWF  43
095F:  MOVLW  02
0960:  MOVWF  44
0961:  BCF    0A.3
0962:  CALL   0FF
0963:  BSF    0A.3
....................    printf(lcd_write_dat,"R:"); 
0964:  MOVLW  52
0965:  MOVWF  50
0966:  BCF    0A.3
0967:  CALL   10F
0968:  BSF    0A.3
0969:  MOVLW  3A
096A:  MOVWF  50
096B:  BCF    0A.3
096C:  CALL   10F
096D:  BSF    0A.3
....................    lcd_gotoxy(11,2); 
096E:  MOVLW  0B
096F:  MOVWF  43
0970:  MOVLW  02
0971:  MOVWF  44
0972:  BCF    0A.3
0973:  CALL   0FF
0974:  BSF    0A.3
....................    printf(lcd_write_dat,"H:"); 
0975:  MOVLW  48
0976:  MOVWF  50
0977:  BCF    0A.3
0978:  CALL   10F
0979:  BSF    0A.3
097A:  MOVLW  3A
097B:  MOVWF  50
097C:  BCF    0A.3
097D:  CALL   10F
097E:  BSF    0A.3
....................    lcd_gotoxy(13,2); 
097F:  MOVLW  0D
0980:  MOVWF  43
0981:  MOVLW  02
0982:  MOVWF  44
0983:  BCF    0A.3
0984:  CALL   0FF
0985:  BSF    0A.3
....................    printf(lcd_write_dat,"%1.1f", his); 
0986:  MOVLW  89
0987:  MOVWF  04
0988:  MOVF   38,W
0989:  MOVWF  46
098A:  MOVF   37,W
098B:  MOVWF  45
098C:  MOVF   36,W
098D:  MOVWF  44
098E:  MOVF   35,W
098F:  MOVWF  43
0990:  MOVLW  01
0991:  MOVWF  47
0992:  BCF    0A.3
0993:  CALL   1F3
0994:  BSF    0A.3
....................     
....................    while(TRUE){ 
....................       controla_processo(); 
0995:  BCF    0A.3
0996:  GOTO   4A9
0997:  BSF    0A.3
....................       if(fim500ms){ 
0998:  BTFSS  2B.0
0999:  GOTO   19E
....................          fim500ms = 0; 
099A:  BCF    2B.0
....................          le_entradas(); 
099B:  BCF    0A.3
099C:  GOTO   6F4
099D:  BSF    0A.3
....................       } 
....................       le_botaoS1(); 
099E:  GOTO   000
....................       le_botaoS2(); 
099F:  GOTO   013
....................       le_botaoS3(); 
09A0:  GOTO   072
....................       le_botaoS4(); 
09A1:  GOTO   0D5
09A2:  GOTO   195
....................    } 
.................... } 
....................  
09A3:  SLEEP
.................... void le_entradas() 
.................... { 
....................    set_adc_channel(0); 
*
06F4:  MOVLW  00
06F5:  MOVWF  78
06F6:  MOVF   1F,W
06F7:  ANDLW  C7
06F8:  IORWF  78,W
06F9:  MOVWF  1F
....................    delay_us(20); 
06FA:  MOVLW  0D
06FB:  MOVWF  77
06FC:  DECFSZ 77,F
06FD:  GOTO   6FC
....................    temp = read_adc(); 
06FE:  BSF    1F.2
06FF:  BTFSC  1F.2
0700:  GOTO   6FF
0701:  BSF    03.5
0702:  MOVF   1E,W
0703:  BCF    03.5
0704:  MOVWF  31
0705:  MOVF   1E,W
0706:  MOVWF  32
....................    set_adc_channel(1); 
0707:  MOVLW  08
0708:  MOVWF  78
0709:  MOVF   1F,W
070A:  ANDLW  C7
070B:  IORWF  78,W
070C:  MOVWF  1F
....................    delay_us(20); 
070D:  MOVLW  0D
070E:  MOVWF  77
070F:  DECFSZ 77,F
0710:  GOTO   70F
....................    pot = read_adc(); 
0711:  BSF    1F.2
0712:  BTFSC  1F.2
0713:  GOTO   712
0714:  BSF    03.5
0715:  MOVF   1E,W
0716:  BCF    03.5
0717:  MOVWF  33
0718:  MOVF   1E,W
0719:  MOVWF  34
....................    potC = (50*pot + 30690.0) / 1023,0; 
071A:  CLRF   44
071B:  MOVLW  32
071C:  MOVWF  43
071D:  MOVF   34,W
071E:  MOVWF  46
071F:  MOVF   33,W
0720:  MOVWF  45
*
0735:  MOVF   79,W
0736:  MOVWF  44
0737:  MOVF   78,W
0738:  MOVWF  43
0739:  MOVF   79,W
073A:  MOVWF  46
073B:  MOVF   78,W
073C:  MOVWF  45
073D:  CALL   60D
073E:  BCF    03.1
073F:  MOVF   7A,W
0740:  MOVWF  4A
0741:  MOVF   79,W
0742:  MOVWF  49
0743:  MOVF   78,W
0744:  MOVWF  48
0745:  MOVF   77,W
0746:  MOVWF  47
0747:  CLRF   4E
0748:  MOVLW  C4
0749:  MOVWF  4D
074A:  MOVLW  6F
074B:  MOVWF  4C
074C:  MOVLW  8D
074D:  MOVWF  4B
074E:  CALL   2D3
074F:  MOVF   7A,W
0750:  MOVWF  46
0751:  MOVF   79,W
0752:  MOVWF  45
0753:  MOVF   78,W
0754:  MOVWF  44
0755:  MOVF   77,W
0756:  MOVWF  43
0757:  MOVF   7A,W
0758:  MOVWF  4A
0759:  MOVF   79,W
075A:  MOVWF  49
075B:  MOVF   78,W
075C:  MOVWF  48
075D:  MOVF   77,W
075E:  MOVWF  47
075F:  CLRF   4E
0760:  MOVLW  C0
0761:  MOVWF  4D
0762:  MOVLW  7F
0763:  MOVWF  4C
0764:  MOVLW  88
0765:  MOVWF  4B
0766:  CALL   62A
0767:  MOVF   7A,W
0768:  MOVWF  3C
0769:  MOVF   79,W
076A:  MOVWF  3B
076B:  MOVF   78,W
076C:  MOVWF  3A
076D:  MOVF   77,W
076E:  MOVWF  39
....................    tempC = ((temp-341)*33.5+7260)/264.0;  
076F:  MOVLW  55
0770:  SUBWF  31,W
0771:  MOVWF  43
0772:  MOVF   32,W
0773:  MOVWF  44
0774:  MOVLW  01
0775:  BTFSS  03.0
0776:  MOVLW  02
0777:  SUBWF  44,F
0778:  MOVF   44,W
0779:  MOVWF  46
077A:  MOVF   43,W
077B:  MOVWF  45
077C:  CALL   60D
077D:  MOVF   7A,W
077E:  MOVWF  53
077F:  MOVF   79,W
0780:  MOVWF  52
0781:  MOVF   78,W
0782:  MOVWF  51
0783:  MOVF   77,W
0784:  MOVWF  50
0785:  CLRF   57
0786:  CLRF   56
0787:  MOVLW  06
0788:  MOVWF  55
0789:  MOVLW  84
078A:  MOVWF  54
078B:  CALL   12F
078C:  MOVF   7A,W
078D:  MOVWF  46
078E:  MOVF   79,W
078F:  MOVWF  45
0790:  MOVF   78,W
0791:  MOVWF  44
0792:  MOVF   77,W
0793:  MOVWF  43
0794:  BCF    03.1
0795:  MOVF   7A,W
0796:  MOVWF  4A
0797:  MOVF   79,W
0798:  MOVWF  49
0799:  MOVF   78,W
079A:  MOVWF  48
079B:  MOVF   77,W
079C:  MOVWF  47
079D:  CLRF   4E
079E:  MOVLW  E0
079F:  MOVWF  4D
07A0:  MOVLW  62
07A1:  MOVWF  4C
07A2:  MOVLW  8B
07A3:  MOVWF  4B
07A4:  CALL   2D3
07A5:  MOVF   7A,W
07A6:  MOVWF  46
07A7:  MOVF   79,W
07A8:  MOVWF  45
07A9:  MOVF   78,W
07AA:  MOVWF  44
07AB:  MOVF   77,W
07AC:  MOVWF  43
07AD:  MOVF   7A,W
07AE:  MOVWF  4A
07AF:  MOVF   79,W
07B0:  MOVWF  49
07B1:  MOVF   78,W
07B2:  MOVWF  48
07B3:  MOVF   77,W
07B4:  MOVWF  47
07B5:  CLRF   4E
07B6:  CLRF   4D
07B7:  MOVLW  04
07B8:  MOVWF  4C
07B9:  MOVLW  87
07BA:  MOVWF  4B
07BB:  CALL   62A
07BC:  MOVF   7A,W
07BD:  MOVWF  40
07BE:  MOVF   79,W
07BF:  MOVWF  3F
07C0:  MOVF   78,W
07C1:  MOVWF  3E
07C2:  MOVF   77,W
07C3:  MOVWF  3D
....................    lcd_gotoxy(8,1); 
07C4:  MOVLW  08
07C5:  MOVWF  43
07C6:  MOVLW  01
07C7:  MOVWF  44
07C8:  CALL   0FF
....................    printf(lcd_write_dat," "); 
07C9:  MOVLW  20
07CA:  MOVWF  50
07CB:  CALL   10F
....................    lcd_gotoxy(4,1); 
07CC:  MOVLW  04
07CD:  MOVWF  43
07CE:  MOVLW  01
07CF:  MOVWF  44
07D0:  CALL   0FF
....................    printf(lcd_write_dat,"%.1f", potC); 
07D1:  MOVLW  89
07D2:  MOVWF  04
07D3:  MOVF   3C,W
07D4:  MOVWF  46
07D5:  MOVF   3B,W
07D6:  MOVWF  45
07D7:  MOVF   3A,W
07D8:  MOVWF  44
07D9:  MOVF   39,W
07DA:  MOVWF  43
07DB:  MOVLW  01
07DC:  MOVWF  47
07DD:  CALL   1F3
....................    lcd_gotoxy(12,1); 
07DE:  MOVLW  0C
07DF:  MOVWF  43
07E0:  MOVLW  01
07E1:  MOVWF  44
07E2:  CALL   0FF
....................    printf(lcd_write_dat,"%.1f", tempC);   
07E3:  MOVLW  89
07E4:  MOVWF  04
07E5:  MOVF   40,W
07E6:  MOVWF  46
07E7:  MOVF   3F,W
07E8:  MOVWF  45
07E9:  MOVF   3E,W
07EA:  MOVWF  44
07EB:  MOVF   3D,W
07EC:  MOVWF  43
07ED:  MOVLW  01
07EE:  MOVWF  47
07EF:  CALL   1F3
07F0:  BSF    0A.3
07F1:  BCF    0A.4
07F2:  GOTO   19D (RETURN)
.................... } 
....................  
.................... void le_botaoS1() 
.................... { 
....................    if(input(S1)==0){ 
*
0800:  BSF    03.5
0801:  BSF    06.0
0802:  BCF    03.5
0803:  BTFSC  06.0
0804:  GOTO   00D
....................       if(!acao){ 
0805:  BTFSC  2B.3
0806:  GOTO   00C
....................          filtro--; 
0807:  DECFSZ 2D,F
....................          if(filtro==0){ 
0808:  GOTO   00C
....................             acao=1; 
0809:  BSF    2B.3
....................             processo = !processo; 
080A:  MOVLW  02
080B:  XORWF  2B,F
....................          } 
....................       } 
....................    } else{ 
080C:  GOTO   010
....................       filtro = V_FILTRO; 
080D:  MOVLW  64
080E:  MOVWF  2D
....................       acao = 0; 
080F:  BCF    2B.3
....................    } 
0810:  BSF    0A.3
0811:  BCF    0A.4
0812:  GOTO   19F (RETURN)
.................... } 
....................  
.................... void le_botaoS2() 
.................... { 
....................    if(input(S2)==0){ 
0813:  BSF    03.5
0814:  BSF    06.1
0815:  BCF    03.5
0816:  BTFSC  06.1
0817:  GOTO   06C
....................       if(!acao1){ 
0818:  BTFSC  2B.4
0819:  GOTO   06B
....................          filtro1--; 
081A:  DECFSZ 2E,F
....................          if(filtro1==0){ 
081B:  GOTO   06B
....................             acao1=1; 
081C:  BSF    2B.4
....................             if(his>=5.0){ 
081D:  CLRF   46
081E:  CLRF   45
081F:  MOVLW  20
0820:  MOVWF  44
0821:  MOVLW  81
0822:  MOVWF  43
0823:  MOVF   38,W
0824:  MOVWF  4A
0825:  MOVF   37,W
0826:  MOVWF  49
0827:  MOVF   36,W
0828:  MOVWF  48
0829:  MOVF   35,W
082A:  MOVWF  47
082B:  BCF    0A.3
082C:  CALL   414
082D:  BSF    0A.3
082E:  BTFSC  03.0
082F:  GOTO   032
0830:  BTFSS  03.2
0831:  GOTO   039
....................                his = 5.0; 
0832:  CLRF   38
0833:  CLRF   37
0834:  MOVLW  20
0835:  MOVWF  36
0836:  MOVLW  81
0837:  MOVWF  35
....................             } else{ 
0838:  GOTO   055
....................                his = his+0.1; 
0839:  BCF    03.1
083A:  MOVF   38,W
083B:  MOVWF  4A
083C:  MOVF   37,W
083D:  MOVWF  49
083E:  MOVF   36,W
083F:  MOVWF  48
0840:  MOVF   35,W
0841:  MOVWF  47
0842:  MOVLW  CD
0843:  MOVWF  4E
0844:  MOVLW  CC
0845:  MOVWF  4D
0846:  MOVLW  4C
0847:  MOVWF  4C
0848:  MOVLW  7B
0849:  MOVWF  4B
084A:  BCF    0A.3
084B:  CALL   2D3
084C:  BSF    0A.3
084D:  MOVF   7A,W
084E:  MOVWF  38
084F:  MOVF   79,W
0850:  MOVWF  37
0851:  MOVF   78,W
0852:  MOVWF  36
0853:  MOVF   77,W
0854:  MOVWF  35
....................             } 
....................             lcd_gotoxy(13,2); 
0855:  MOVLW  0D
0856:  MOVWF  43
0857:  MOVLW  02
0858:  MOVWF  44
0859:  BCF    0A.3
085A:  CALL   0FF
085B:  BSF    0A.3
....................             printf(lcd_write_dat,"%1.1f", his); 
085C:  MOVLW  89
085D:  MOVWF  04
085E:  MOVF   38,W
085F:  MOVWF  46
0860:  MOVF   37,W
0861:  MOVWF  45
0862:  MOVF   36,W
0863:  MOVWF  44
0864:  MOVF   35,W
0865:  MOVWF  43
0866:  MOVLW  01
0867:  MOVWF  47
0868:  BCF    0A.3
0869:  CALL   1F3
086A:  BSF    0A.3
....................          } 
....................       } 
....................    } else{ 
086B:  GOTO   06F
....................       filtro1 = V_FILTRO; 
086C:  MOVLW  64
086D:  MOVWF  2E
....................       acao1 = 0; 
086E:  BCF    2B.4
....................    } 
086F:  BSF    0A.3
0870:  BCF    0A.4
0871:  GOTO   1A0 (RETURN)
.................... } 
....................  
.................... void le_botaoS3() 
.................... { 
....................    if(input(S3)==0){ 
0872:  BSF    03.5
0873:  BSF    06.2
0874:  BCF    03.5
0875:  BTFSC  06.2
0876:  GOTO   0CF
....................       if(!acao2){ 
0877:  BTFSC  2B.5
0878:  GOTO   0CE
....................          filtro2--; 
0879:  DECFSZ 2F,F
....................          if(filtro2==0){ 
087A:  GOTO   0CE
....................             acao2=1; 
087B:  BSF    2B.5
....................             if(his<=0.1){ 
087C:  MOVF   38,W
087D:  MOVWF  46
087E:  MOVF   37,W
087F:  MOVWF  45
0880:  MOVF   36,W
0881:  MOVWF  44
0882:  MOVF   35,W
0883:  MOVWF  43
0884:  MOVLW  CD
0885:  MOVWF  4A
0886:  MOVLW  CC
0887:  MOVWF  49
0888:  MOVLW  4C
0889:  MOVWF  48
088A:  MOVLW  7B
088B:  MOVWF  47
088C:  BCF    0A.3
088D:  CALL   414
088E:  BSF    0A.3
088F:  BTFSC  03.0
0890:  GOTO   093
0891:  BTFSS  03.2
0892:  GOTO   09C
....................                his = 0.1; 
0893:  MOVLW  CD
0894:  MOVWF  38
0895:  MOVLW  CC
0896:  MOVWF  37
0897:  MOVLW  4C
0898:  MOVWF  36
0899:  MOVLW  7B
089A:  MOVWF  35
....................             } else{ 
089B:  GOTO   0B8
....................                his = his-0.1; 
089C:  BSF    03.1
089D:  MOVF   38,W
089E:  MOVWF  4A
089F:  MOVF   37,W
08A0:  MOVWF  49
08A1:  MOVF   36,W
08A2:  MOVWF  48
08A3:  MOVF   35,W
08A4:  MOVWF  47
08A5:  MOVLW  CD
08A6:  MOVWF  4E
08A7:  MOVLW  CC
08A8:  MOVWF  4D
08A9:  MOVLW  4C
08AA:  MOVWF  4C
08AB:  MOVLW  7B
08AC:  MOVWF  4B
08AD:  BCF    0A.3
08AE:  CALL   2D3
08AF:  BSF    0A.3
08B0:  MOVF   7A,W
08B1:  MOVWF  38
08B2:  MOVF   79,W
08B3:  MOVWF  37
08B4:  MOVF   78,W
08B5:  MOVWF  36
08B6:  MOVF   77,W
08B7:  MOVWF  35
....................             } 
....................             lcd_gotoxy(13,2); 
08B8:  MOVLW  0D
08B9:  MOVWF  43
08BA:  MOVLW  02
08BB:  MOVWF  44
08BC:  BCF    0A.3
08BD:  CALL   0FF
08BE:  BSF    0A.3
....................             printf(lcd_write_dat,"%1.1f", his); 
08BF:  MOVLW  89
08C0:  MOVWF  04
08C1:  MOVF   38,W
08C2:  MOVWF  46
08C3:  MOVF   37,W
08C4:  MOVWF  45
08C5:  MOVF   36,W
08C6:  MOVWF  44
08C7:  MOVF   35,W
08C8:  MOVWF  43
08C9:  MOVLW  01
08CA:  MOVWF  47
08CB:  BCF    0A.3
08CC:  CALL   1F3
08CD:  BSF    0A.3
....................          } 
....................       } 
....................    } else{ 
08CE:  GOTO   0D2
....................       filtro2 = V_FILTRO; 
08CF:  MOVLW  64
08D0:  MOVWF  2F
....................       acao2 = 0; 
08D1:  BCF    2B.5
....................    } 
08D2:  BSF    0A.3
08D3:  BCF    0A.4
08D4:  GOTO   1A1 (RETURN)
.................... } 
....................  
.................... void le_botaoS4() 
.................... { 
....................    if(input(S4)==0){ 
08D5:  BSF    03.5
08D6:  BSF    06.3
08D7:  BCF    03.5
08D8:  BTFSC  06.3
08D9:  GOTO   0E2
....................       if(!acao3){ 
08DA:  BTFSC  2B.6
08DB:  GOTO   0E1
....................          filtro3--; 
08DC:  DECFSZ 30,F
....................          if(filtro3==0){ 
08DD:  GOTO   0E1
....................             acao3=1; 
08DE:  BSF    2B.6
....................             qual_display = !qual_display; 
08DF:  MOVLW  04
08E0:  XORWF  2B,F
....................          } 
....................       } 
....................    } else{ 
08E1:  GOTO   0E5
....................       filtro3 = V_FILTRO; 
08E2:  MOVLW  64
08E3:  MOVWF  30
....................       acao3 = 0; 
08E4:  BCF    2B.6
....................    } 
08E5:  BSF    0A.3
08E6:  BCF    0A.4
08E7:  GOTO   1A2 (RETURN)
.................... } 
....................  
.................... void controla_processo() 
.................... { 
....................    if(processo){ 
*
04A9:  BTFSS  2B.1
04AA:  GOTO   5A2
....................       lcd_gotoxy(3,2); 
04AB:  MOVLW  03
04AC:  MOVWF  43
04AD:  MOVLW  02
04AE:  MOVWF  44
04AF:  CALL   0FF
....................       printf(lcd_write_dat,"ON"); 
04B0:  MOVLW  4F
04B1:  MOVWF  50
04B2:  CALL   10F
04B3:  MOVLW  4E
04B4:  MOVWF  50
04B5:  CALL   10F
....................       if(tempC<(potC-his)){ 
04B6:  BSF    03.1
04B7:  MOVF   3C,W
04B8:  MOVWF  4A
04B9:  MOVF   3B,W
04BA:  MOVWF  49
04BB:  MOVF   3A,W
04BC:  MOVWF  48
04BD:  MOVF   39,W
04BE:  MOVWF  47
04BF:  MOVF   38,W
04C0:  MOVWF  4E
04C1:  MOVF   37,W
04C2:  MOVWF  4D
04C3:  MOVF   36,W
04C4:  MOVWF  4C
04C5:  MOVF   35,W
04C6:  MOVWF  4B
04C7:  CALL   2D3
04C8:  MOVF   40,W
04C9:  MOVWF  46
04CA:  MOVF   3F,W
04CB:  MOVWF  45
04CC:  MOVF   3E,W
04CD:  MOVWF  44
04CE:  MOVF   3D,W
04CF:  MOVWF  43
04D0:  MOVF   7A,W
04D1:  MOVWF  4A
04D2:  MOVF   79,W
04D3:  MOVWF  49
04D4:  MOVF   78,W
04D5:  MOVWF  48
04D6:  MOVF   77,W
04D7:  MOVWF  47
04D8:  CALL   414
04D9:  BTFSS  03.0
04DA:  GOTO   500
....................          output_low(FAN); 
04DB:  MOVLW  F9
04DC:  BSF    03.5
04DD:  MOVWF  07
04DE:  BCF    03.5
04DF:  BCF    07.1
....................          output_high(HEATER); 
04E0:  BSF    03.5
04E1:  MOVWF  07
04E2:  BCF    03.5
04E3:  BSF    07.2
....................          if(qual_display){ 
04E4:  BTFSS  2B.2
04E5:  GOTO   4F3
....................             lcd_gotoxy(6,2); 
04E6:  MOVLW  06
04E7:  MOVWF  43
04E8:  MOVLW  02
04E9:  MOVWF  44
04EA:  CALL   0FF
....................             printf(lcd_write_dat,"V:OF"); 
04EB:  MOVLW  5D
04EC:  BSF    03.6
04ED:  MOVWF  0D
04EE:  MOVLW  00
04EF:  MOVWF  0F
04F0:  BCF    03.6
04F1:  CALL   453
....................          } else{ 
04F2:  GOTO   4FF
....................             lcd_gotoxy(6,2); 
04F3:  MOVLW  06
04F4:  MOVWF  43
04F5:  MOVLW  02
04F6:  MOVWF  44
04F7:  CALL   0FF
....................          printf(lcd_write_dat,"R:ON"); 
04F8:  MOVLW  60
04F9:  BSF    03.6
04FA:  MOVWF  0D
04FB:  MOVLW  00
04FC:  MOVWF  0F
04FD:  BCF    03.6
04FE:  CALL   453
....................          } 
....................       } else if(tempC>(potC+his)){ 
04FF:  GOTO   538
0500:  BCF    03.1
0501:  MOVF   3C,W
0502:  MOVWF  4A
0503:  MOVF   3B,W
0504:  MOVWF  49
0505:  MOVF   3A,W
0506:  MOVWF  48
0507:  MOVF   39,W
0508:  MOVWF  47
0509:  MOVF   38,W
050A:  MOVWF  4E
050B:  MOVF   37,W
050C:  MOVWF  4D
050D:  MOVF   36,W
050E:  MOVWF  4C
050F:  MOVF   35,W
0510:  MOVWF  4B
0511:  CALL   2D3
0512:  MOVF   7A,W
0513:  MOVWF  46
0514:  MOVF   79,W
0515:  MOVWF  45
0516:  MOVF   78,W
0517:  MOVWF  44
0518:  MOVF   77,W
0519:  MOVWF  43
051A:  MOVF   40,W
051B:  MOVWF  4A
051C:  MOVF   3F,W
051D:  MOVWF  49
051E:  MOVF   3E,W
051F:  MOVWF  48
0520:  MOVF   3D,W
0521:  MOVWF  47
0522:  CALL   414
0523:  BTFSS  03.0
0524:  GOTO   538
....................          output_low(HEATER); 
0525:  MOVLW  F9
0526:  BSF    03.5
0527:  MOVWF  07
0528:  BCF    03.5
0529:  BCF    07.2
....................          if(!qual_display){ 
052A:  BTFSC  2B.2
052B:  GOTO   538
....................             lcd_gotoxy(6,2); 
052C:  MOVLW  06
052D:  MOVWF  43
052E:  MOVLW  02
052F:  MOVWF  44
0530:  CALL   0FF
....................             printf(lcd_write_dat,"R:OF"); 
0531:  MOVLW  63
0532:  BSF    03.6
0533:  MOVWF  0D
0534:  MOVLW  00
0535:  MOVWF  0F
0536:  BCF    03.6
0537:  CALL   453
....................          } 
....................       } 
....................       if(tempC> (1.2*potC)){ 
0538:  MOVLW  9A
0539:  MOVWF  53
053A:  MOVLW  99
053B:  MOVWF  52
053C:  MOVLW  19
053D:  MOVWF  51
053E:  MOVLW  7F
053F:  MOVWF  50
0540:  MOVF   3C,W
0541:  MOVWF  57
0542:  MOVF   3B,W
0543:  MOVWF  56
0544:  MOVF   3A,W
0545:  MOVWF  55
0546:  MOVF   39,W
0547:  MOVWF  54
0548:  CALL   12F
0549:  MOVF   7A,W
054A:  MOVWF  46
054B:  MOVF   79,W
054C:  MOVWF  45
054D:  MOVF   78,W
054E:  MOVWF  44
054F:  MOVF   77,W
0550:  MOVWF  43
0551:  MOVF   40,W
0552:  MOVWF  4A
0553:  MOVF   3F,W
0554:  MOVWF  49
0555:  MOVF   3E,W
0556:  MOVWF  48
0557:  MOVF   3D,W
0558:  MOVWF  47
0559:  CALL   414
055A:  BTFSS  03.0
055B:  GOTO   574
....................          output_high(fan); 
055C:  MOVLW  F9
055D:  BSF    03.5
055E:  MOVWF  07
055F:  BCF    03.5
0560:  BSF    07.1
....................          output_high(buzzer); 
0561:  MOVLW  DF
0562:  BSF    03.5
0563:  MOVWF  05
0564:  BCF    03.5
0565:  BSF    05.5
....................          if(qual_display){ 
0566:  BTFSS  2B.2
0567:  GOTO   574
....................             lcd_gotoxy(6,2); 
0568:  MOVLW  06
0569:  MOVWF  43
056A:  MOVLW  02
056B:  MOVWF  44
056C:  CALL   0FF
....................             printf(lcd_write_dat,"V:ON"); 
056D:  MOVLW  66
056E:  BSF    03.6
056F:  MOVWF  0D
0570:  MOVLW  00
0571:  MOVWF  0F
0572:  BCF    03.6
0573:  CALL   453
....................          } 
....................       }  
....................       if(tempC<=potC){ 
0574:  MOVF   40,W
0575:  MOVWF  46
0576:  MOVF   3F,W
0577:  MOVWF  45
0578:  MOVF   3E,W
0579:  MOVWF  44
057A:  MOVF   3D,W
057B:  MOVWF  43
057C:  MOVF   3C,W
057D:  MOVWF  4A
057E:  MOVF   3B,W
057F:  MOVWF  49
0580:  MOVF   3A,W
0581:  MOVWF  48
0582:  MOVF   39,W
0583:  MOVWF  47
0584:  CALL   414
0585:  BTFSC  03.0
0586:  GOTO   589
0587:  BTFSS  03.2
0588:  GOTO   5A1
....................          output_low(fan); 
0589:  MOVLW  F9
058A:  BSF    03.5
058B:  MOVWF  07
058C:  BCF    03.5
058D:  BCF    07.1
....................          output_low(buzzer); 
058E:  MOVLW  DF
058F:  BSF    03.5
0590:  MOVWF  05
0591:  BCF    03.5
0592:  BCF    05.5
....................          if(qual_display){ 
0593:  BTFSS  2B.2
0594:  GOTO   5A1
....................             lcd_gotoxy(6,2); 
0595:  MOVLW  06
0596:  MOVWF  43
0597:  MOVLW  02
0598:  MOVWF  44
0599:  CALL   0FF
....................             printf(lcd_write_dat,"V:OF"); 
059A:  MOVLW  69
059B:  BSF    03.6
059C:  MOVWF  0D
059D:  MOVLW  00
059E:  MOVWF  0F
059F:  BCF    03.6
05A0:  CALL   453
....................          } 
....................       } 
....................    } else{ 
05A1:  GOTO   60A
....................       output_low(heater); 
05A2:  MOVLW  F9
05A3:  BSF    03.5
05A4:  MOVWF  07
05A5:  BCF    03.5
05A6:  BCF    07.2
....................       output_low(buzzer); 
05A7:  MOVLW  DF
05A8:  BSF    03.5
05A9:  MOVWF  05
05AA:  BCF    03.5
05AB:  BCF    05.5
....................       lcd_gotoxy(3,2); 
05AC:  MOVLW  03
05AD:  MOVWF  43
05AE:  MOVLW  02
05AF:  MOVWF  44
05B0:  CALL   0FF
....................       printf(lcd_write_dat,"OF"); 
05B1:  MOVLW  4F
05B2:  MOVWF  50
05B3:  CALL   10F
05B4:  MOVLW  46
05B5:  MOVWF  50
05B6:  CALL   10F
....................       if(!qual_display){ 
05B7:  BTFSC  2B.2
05B8:  GOTO   5C5
....................          lcd_gotoxy(6,2); 
05B9:  MOVLW  06
05BA:  MOVWF  43
05BB:  MOVLW  02
05BC:  MOVWF  44
05BD:  CALL   0FF
....................          printf(lcd_write_dat,"R:OF"); 
05BE:  MOVLW  6C
05BF:  BSF    03.6
05C0:  MOVWF  0D
05C1:  MOVLW  00
05C2:  MOVWF  0F
05C3:  BCF    03.6
05C4:  CALL   453
....................       } 
....................       if(tempC>30.0){ 
05C5:  CLRF   46
05C6:  CLRF   45
05C7:  MOVLW  70
05C8:  MOVWF  44
05C9:  MOVLW  83
05CA:  MOVWF  43
05CB:  MOVF   40,W
05CC:  MOVWF  4A
05CD:  MOVF   3F,W
05CE:  MOVWF  49
05CF:  MOVF   3E,W
05D0:  MOVWF  48
05D1:  MOVF   3D,W
05D2:  MOVWF  47
05D3:  CALL   414
05D4:  BTFSS  03.0
05D5:  GOTO   5EA
....................          output_high(FAN); 
05D6:  MOVLW  F9
05D7:  BSF    03.5
05D8:  MOVWF  07
05D9:  BCF    03.5
05DA:  BSF    07.1
....................          if(qual_display){ 
05DB:  BTFSS  2B.2
05DC:  GOTO   5E9
....................             lcd_gotoxy(6,2); 
05DD:  MOVLW  06
05DE:  MOVWF  43
05DF:  MOVLW  02
05E0:  MOVWF  44
05E1:  CALL   0FF
....................             printf(lcd_write_dat,"V:ON"); 
05E2:  MOVLW  6F
05E3:  BSF    03.6
05E4:  MOVWF  0D
05E5:  MOVLW  00
05E6:  MOVWF  0F
05E7:  BCF    03.6
05E8:  CALL   453
....................          } 
....................       } else{ 
05E9:  GOTO   60A
....................          output_low(FAN); 
05EA:  MOVLW  F9
05EB:  BSF    03.5
05EC:  MOVWF  07
05ED:  BCF    03.5
05EE:  BCF    07.1
....................          if(qual_display){ 
05EF:  BTFSS  2B.2
05F0:  GOTO   5FE
....................             lcd_gotoxy(6,2); 
05F1:  MOVLW  06
05F2:  MOVWF  43
05F3:  MOVLW  02
05F4:  MOVWF  44
05F5:  CALL   0FF
....................             printf(lcd_write_dat,"V:OF"); 
05F6:  MOVLW  72
05F7:  BSF    03.6
05F8:  MOVWF  0D
05F9:  MOVLW  00
05FA:  MOVWF  0F
05FB:  BCF    03.6
05FC:  CALL   453
....................          } else{ 
05FD:  GOTO   60A
....................             lcd_gotoxy(6,2); 
05FE:  MOVLW  06
05FF:  MOVWF  43
0600:  MOVLW  02
0601:  MOVWF  44
0602:  CALL   0FF
....................             printf(lcd_write_dat,"R:OF"); 
0603:  MOVLW  75
0604:  BSF    03.6
0605:  MOVWF  0D
0606:  MOVLW  00
0607:  MOVWF  0F
0608:  BCF    03.6
0609:  CALL   453
....................          } 
....................       } 
....................    } 
060A:  BSF    0A.3
060B:  BCF    0A.4
060C:  GOTO   197 (RETURN)
.................... } 

Configuration Fuses:
   Word  1: 3F72   HS NOWDT PUT BROWNOUT NOLVP NOCPD NOWRT NODEBUG NOPROTECT
